target datalayout = "e-m:e-p270:32:32-p271:32:32-p272:64:64-i64:64-i128:128-f80:128-n8:16:32:64-S128"
target triple = "x86_64-pc-linux-gnu"

%struct.UBiDiProps = type { ptr, ptr, ptr, ptr, ptr, %struct.UTrie2, [4 x i8] }
%struct.UTrie2 = type { ptr, ptr, ptr, i32, i32, i16, i16, i32, i32, i32, i32, ptr, i32, i8, i8, i16, ptr }

; Function Attrs: mustprogress nounwind uwtable
define i32 @ubidi_getJoiningGroup_77(i32 noundef %0) #4 {
  %2 = alloca i32, align 4
  %3 = alloca i32, align 4
  %4 = alloca i32, align 4
  %5 = alloca i32, align 4
  %6 = alloca i32, align 4
  store i32 %0, ptr %3, align 4, !tbaa !21
  call void @llvm.lifetime.start.p0(i64 4, ptr %4) #5
  call void @llvm.lifetime.start.p0(i64 4, ptr %5) #5
  %7 = load ptr, ptr getelementptr inbounds nuw (%struct.UBiDiProps, ptr @_ZL21ubidi_props_singleton, i32 0, i32 1), align 8, !tbaa !11
  %8 = getelementptr inbounds nuw i32, ptr %7, i64 4
  %9 = load i32, ptr %8, align 4, !tbaa !21
  store i32 %9, ptr %4, align 4, !tbaa !21
  %10 = load ptr, ptr getelementptr inbounds nuw (%struct.UBiDiProps, ptr @_ZL21ubidi_props_singleton, i32 0, i32 1), align 8, !tbaa !11
  %11 = getelementptr inbounds nuw i32, ptr %10, i64 5
  %12 = load i32, ptr %11, align 4, !tbaa !21
  store i32 %12, ptr %5, align 4, !tbaa !21
  %13 = load i32, ptr %4, align 4, !tbaa !21
  %14 = load i32, ptr %3, align 4, !tbaa !21
  %15 = icmp sle i32 %13, %14
  br i1 %15, label %16, label %29

16:                                               ; preds = %1
  %17 = load i32, ptr %3, align 4, !tbaa !21
  %18 = load i32, ptr %5, align 4, !tbaa !21
  %19 = icmp slt i32 %17, %18
  br i1 %19, label %20, label %29

20:                                               ; preds = %16
  %21 = load ptr, ptr getelementptr inbounds nuw (%struct.UBiDiProps, ptr @_ZL21ubidi_props_singleton, i32 0, i32 3), align 8, !tbaa !29
  %22 = load i32, ptr %3, align 4, !tbaa !21
  %23 = load i32, ptr %4, align 4, !tbaa !21
  %24 = sub nsw i32 %22, %23
  %25 = sext i32 %24 to i64
  %26 = getelementptr inbounds i8, ptr %21, i64 %25
  %27 = load i8, ptr %26, align 1, !tbaa !31
  %28 = zext i8 %27 to i32
  store i32 %28, ptr %2, align 4
  store i32 1, ptr %6, align 4
  br label %53

29:                                               ; preds = %16, %1
  %30 = load ptr, ptr getelementptr inbounds nuw (%struct.UBiDiProps, ptr @_ZL21ubidi_props_singleton, i32 0, i32 1), align 8, !tbaa !11
  %31 = getelementptr inbounds nuw i32, ptr %30, i64 6
  %32 = load i32, ptr %31, align 4, !tbaa !21
  store i32 %32, ptr %4, align 4, !tbaa !21
  %33 = load ptr, ptr getelementptr inbounds nuw (%struct.UBiDiProps, ptr @_ZL21ubidi_props_singleton, i32 0, i32 1), align 8, !tbaa !11
  %34 = getelementptr inbounds nuw i32, ptr %33, i64 7
  %35 = load i32, ptr %34, align 4, !tbaa !21
  store i32 %35, ptr %5, align 4, !tbaa !21
  %36 = load i32, ptr %4, align 4, !tbaa !21
  %37 = load i32, ptr %3, align 4, !tbaa !21
  %38 = icmp sle i32 %36, %37
  br i1 %38, label %39, label %52

39:                                               ; preds = %29
  %40 = load i32, ptr %3, align 4, !tbaa !21
  %41 = load i32, ptr %5, align 4, !tbaa !21
  %42 = icmp slt i32 %40, %41
  br i1 %42, label %43, label %52

43:                                               ; preds = %39
  %44 = load ptr, ptr getelementptr inbounds nuw (%struct.UBiDiProps, ptr @_ZL21ubidi_props_singleton, i32 0, i32 4), align 8, !tbaa !34
  %45 = load i32, ptr %3, align 4, !tbaa !21
  %46 = load i32, ptr %4, align 4, !tbaa !21
  %47 = sub nsw i32 %45, %46
  %48 = sext i32 %47 to i64
  %49 = getelementptr inbounds i8, ptr %44, i64 %48
  %50 = load i8, ptr %49, align 1, !tbaa !31
  %51 = zext i8 %50 to i32
  store i32 %51, ptr %2, align 4
  store i32 1, ptr %6, align 4
  br label %53

52:                                               ; preds = %39, %29
  store i32 0, ptr %2, align 4
  store i32 1, ptr %6, align 4
  br label %53

53:                                               ; preds = %52, %43, %20
  call void @llvm.lifetime.end.p0(i64 4, ptr %5) #5
  call void @llvm.lifetime.end.p0(i64 4, ptr %4) #5
  %54 = load i32, ptr %2, align 4
  ret i32 %54
}