; Function Attrs: mustprogress nofree norecurse nosync nounwind willreturn memory(none) uwtable
define range(i32 0, 256) i32 @ubidi_getJoiningGroup_77(i32 noundef %0) local_unnamed_addr #2 {
  %2 = add i32 %0, -1568
  %or.cond = icmp ult i32 %2, 683
  br i1 %or.cond, label %.sink.split, label %3

3:                                                ; preds = %1
  %4 = add i32 %0, -68288
  %or.cond14 = icmp ult i32 %4, 1029
  br i1 %or.cond14, label %.sink.split, label %10

.sink.split:                                      ; preds = %3, %1
  %_ZL20ubidi_props_jgArray2.sink = phi ptr [ @_ZL19ubidi_props_jgArray, %1 ], [ @_ZL20ubidi_props_jgArray2, %3 ]
  %.sink16 = phi i64 [ -1568, %1 ], [ -68288, %3 ]
  %5 = zext nneg i32 %0 to i64
  %6 = getelementptr i8, ptr %_ZL20ubidi_props_jgArray2.sink, i64 %5
  %7 = getelementptr i8, ptr %6, i64 %.sink16
  %8 = load i8, ptr %7, align 1, !tbaa !16
  %9 = zext i8 %8 to i32
  br label %10

10:                                               ; preds = %.sink.split, %3
  %.0.shrunk = phi i32 [ 0, %3 ], [ %9, %.sink.split ]
  ret i32 %.0.shrunk
}